; Function Attrs: mustprogress uwtable
define dso_local void @_ZNK23cmInstallFilesGenerator9GetRenameERKNSt7__cxx1112basic_stringIcSt11char_traitsIcESaIcEEE(ptr dead_on_unwind noalias writable sret(%"class.std::__cxx11::basic_string") align 8 %0, ptr noundef nonnull align 8 dereferenceable(298) %1, ptr noundef nonnull align 8 dereferenceable(32) %2) local_unnamed_addr #3 align 2 personality ptr @__gxx_personality_v0 {
  %4 = alloca %"class.std::__cxx11::basic_string", align 8
  %5 = alloca %"class.std::__cxx11::basic_string", align 8
  %6 = getelementptr inbounds i8, ptr %1, i64 264
  call void @_ZNSt7__cxx1112basic_stringIcSt11char_traitsIcESaIcEEC1ERKS4_(ptr noundef nonnull align 8 dereferenceable(32) %4, ptr noundef nonnull align 8 dereferenceable(32) %6)
  %7 = getelementptr inbounds i8, ptr %1, i64 200
  %8 = load ptr, ptr %7, align 8
  call void @_ZNSt7__cxx1112basic_stringIcSt11char_traitsIcESaIcEEC1Ev(ptr noundef nonnull align 8 dereferenceable(32) %5) #13
  invoke void @_ZN21cmGeneratorExpression8EvaluateENSt7__cxx1112basic_stringIcSt11char_traitsIcESaIcEEEP16cmLocalGeneratorRKS5_PK17cmGeneratorTargetP31cmGeneratorExpressionDAGCheckerSC_S9_(ptr dead_on_unwind writable sret(%"class.std::__cxx11::basic_string") align 8 %0, ptr noundef nonnull %4, ptr noundef %8, ptr noundef nonnull align 8 dereferenceable(32) %2, ptr noundef null, ptr noundef null, ptr noundef null, ptr noundef nonnull align 8 dereferenceable(32) %5)
          to label %9 unwind label %10

9:                                                ; preds = %3
  call void @_ZNSt7__cxx1112basic_stringIcSt11char_traitsIcESaIcEED1Ev(ptr noundef nonnull align 8 dereferenceable(32) %5) #13
  call void @_ZNSt7__cxx1112basic_stringIcSt11char_traitsIcESaIcEED1Ev(ptr noundef nonnull align 8 dereferenceable(32) %4) #13
  ret void

10:                                               ; preds = %3
  %11 = landingpad { ptr, i32 }
          cleanup
  call void @_ZNSt7__cxx1112basic_stringIcSt11char_traitsIcESaIcEED1Ev(ptr noundef nonnull align 8 dereferenceable(32) %5) #13
  call void @_ZNSt7__cxx1112basic_stringIcSt11char_traitsIcESaIcEED1Ev(ptr noundef nonnull align 8 dereferenceable(32) %4) #13
  resume { ptr, i32 } %11
}